ccopy_reg
_reconstructor
p0
(cpandas.core.frame
DataFrame
p1
c__builtin__
object
p2
Ntp3
Rp4
(dp5
S'_metadata'
p6
(lp7
sS'_typ'
p8
S'dataframe'
p9
sS'_data'
p10
g0
(cpandas.core.internals
BlockManager
p11
g2
Ntp12
Rp13
((lp14
cpandas.core.indexes.base
_new_Index
p15
(cpandas.core.indexes.base
Index
p16
(dp17
S'data'
p18
cnumpy.core.multiarray
_reconstruct
p19
(cnumpy
ndarray
p20
(I0
tp21
S'b'
p22
tp23
Rp24
(I1
(I14
tp25
cnumpy
dtype
p26
(S'O8'
p27
I0
I1
tp28
Rp29
(I3
S'|'
p30
NNNI-1
I-1
I63
tp31
bI00
(lp32
S'year'
p33
aS'type'
p34
aS'procOriginal'
p35
aS'proc'
p36
aS'proc_s0'
p37
aS'cat'
p38
aS'inputWSFile'
p39
aS'nominalDataName'
p40
aS'modelWSFile'
p41
aS'model'
p42
aS'rate'
p43
aS'nominal_yield'
p44
aS'sumw2'
p45
aS'nominal_yield_COWCorr'
p46
atp47
bsS'name'
p48
Nstp49
Rp50
ag15
(cpandas.core.indexes.numeric
Int64Index
p51
(dp52
g18
g19
(g20
(I0
tp53
g22
tp54
Rp55
(I1
(I5
tp56
g26
(S'i8'
p57
I0
I1
tp58
Rp59
(I3
S'<'
p60
NNNI-1
I-1
I0
tp61
bI00
S'\x00\x00\x00\x00\x00\x00\x00\x00\x01\x00\x00\x00\x00\x00\x00\x00\x02\x00\x00\x00\x00\x00\x00\x00\x03\x00\x00\x00\x00\x00\x00\x00\x04\x00\x00\x00\x00\x00\x00\x00'
p62
tp63
bsg48
Nstp64
Rp65
a(lp66
g19
(g20
(I0
tp67
g22
tp68
Rp69
(I1
(I1
I5
tp70
g26
(S'f8'
p71
I0
I1
tp72
Rp73
(I3
S'<'
p74
NNNI-1
I-1
I0
tp75
bI00
S'\x00\x00\x00\x00\xc0\x16\xef@\x00\x00\x00\x00\xc0\x16\xef@\x00\x00\x00\x00\xc0\x16\xef@\x00\x00\x00\x00\x00\x00\xf0?\x00\x00\x00\x00\x00\x00\xf0\xbf'
p76
tp77
bag19
(g20
(I0
tp78
g22
tp79
Rp80
(I1
(I13
I5
tp81
g29
I00
(lp82
S'2018'
p83
ag83
ag83
aS'merged'
p84
ag84
aS'sig'
p85
ag85
ag85
aS'bkg'
p86
ag18
aS'GG2H'
p87
aS'GG2HPLUSINT'
p88
aS'VBF'
p89
aS'bkg_mass'
p90
aS'data_obs'
p91
aS'ggH_2018_hgg'
p92
aS'ggh_2018_hgg'
p93
aS'qqH_2018_hgg'
p94
ag90
ag91
aS'ggh'
p95
ag95
aS'vbf'
p96
aS'-'
p97
ag97
aS'UntaggedTag_3'
p98
ag98
ag98
ag98
ag98
aS'/eos/user/r/rgargiul/amrutha_ws/output_GluGluHToGG_M125_TuneCP5_13TeV-amcatnloFXFX-pythia8_GG2H.root'
p99
aS'/eos/user/r/rgargiul/amrutha_ws/output_GluGluHToGGPlusIntGG_M125_TuneCP5_13TeV-sherpa-pythia8_GG2HPLUSINT.root'
p100
aS'/eos/user/r/rgargiul/amrutha_ws/output_VBFHToGG_M125_TuneCP5_13TeV-amcatnlo-pythia8_VBF.root'
p101
ag97
ag97
aS'ggh_125_13TeV_UntaggedTag_3'
p102
aS'ggh_125_13TeV_UntaggedTag_3'
p103
aS'vbf_125_13TeV_UntaggedTag_3'
p104
ag97
ag97
aS'./Models/signal/CMS-HGG_sigfit_packaged_UntaggedTag_3.root'
p105
aS'./Models/signal/CMS-HGG_sigfit_packaged_UntaggedTag_3.root'
p106
aS'./Models/signal/CMS-HGG_sigfit_packaged_UntaggedTag_3.root'
p107
aS'./Models/background/CMS-HGG_multipdf_UntaggedTag_3.root'
p108
ag108
aS'wsig_13TeV:hggpdfsmrel_GG2H_2018_UntaggedTag_3_13TeV'
p109
aS'wsig_13TeV:hggpdfsmrel_GG2HPLUSINT_2018_UntaggedTag_3_13TeV'
p110
aS'wsig_13TeV:hggpdfsmrel_VBF_2018_UntaggedTag_3_13TeV'
p111
aS'multipdf:CMS_hgg_UntaggedTag_3_13TeV_bkgshape'
p112
aS'multipdf:roohist_data_mass_UntaggedTag_3'
p113
aF3.6257927656570246
aF3.4158867467067466
aF0.6509726592819334
ag97
ag97
aF0.0004027058212139736
aF0.0008506291591526113
aF0.0005051206370514415
ag97
ag97
aF3.7604815709845187
aF3.55239442099653
aF0.6777270939752686
ag97
ag97
atp114
ba(lp115
g15
(g16
(dp116
g18
g19
(g20
(I0
tp117
g22
tp118
Rp119
(I1
(I1
tp120
g29
I00
(lp121
g43
atp122
bsg48
Nstp123
Rp124
ag15
(g16
(dp125
g18
g19
(g20
(I0
tp126
g22
tp127
Rp128
(I1
(I13
tp129
g29
I00
(lp130
g33
ag34
ag35
ag36
ag37
ag38
ag39
ag40
ag41
ag42
ag44
ag45
ag46
atp131
bsg48
Nstp132
Rp133
a(dp134
S'0.14.1'
p135
(dp136
S'axes'
p137
g14
sS'blocks'
p138
(lp139
(dp140
S'mgr_locs'
p141
c__builtin__
slice
p142
(I10
I11
I1
tp143
Rp144
sS'values'
p145
g69
sa(dp146
g141
g19
(g20
(I0
tp147
g22
tp148
Rp149
(I1
(I13
tp150
g59
I00
S'\x00\x00\x00\x00\x00\x00\x00\x00\x01\x00\x00\x00\x00\x00\x00\x00\x02\x00\x00\x00\x00\x00\x00\x00\x03\x00\x00\x00\x00\x00\x00\x00\x04\x00\x00\x00\x00\x00\x00\x00\x05\x00\x00\x00\x00\x00\x00\x00\x06\x00\x00\x00\x00\x00\x00\x00\x07\x00\x00\x00\x00\x00\x00\x00\x08\x00\x00\x00\x00\x00\x00\x00\t\x00\x00\x00\x00\x00\x00\x00\x0b\x00\x00\x00\x00\x00\x00\x00\x0c\x00\x00\x00\x00\x00\x00\x00\r\x00\x00\x00\x00\x00\x00\x00'
p151
tp152
bsg145
g80
sasstp153
bsb.